; Function Attrs: mustprogress nofree nounwind memory(read, argmem: readwrite, inaccessiblemem: none) uwtable
define dso_local void @_ZN4llvm7AArch6424targetFeatureToExtensionENS_9StringRefE(ptr dead_on_unwind noalias writable writeonly sret(%"class.std::optional.30") align 8 captures(none) %0, ptr readonly captures(none) %1, i64 %2) local_unnamed_addr #2 {
  %.fr19 = freeze i64 %2
  %4 = icmp eq i64 %.fr19, 0
  br i1 %4, label %.split.us, label %.split

.split.us:                                        ; preds = %3, %_ZN4llvmeqENS_9StringRefES0_.exit.thread11.us
  %.0.idx14.us = phi i64 [ %.0.add.us, %_ZN4llvmeqENS_9StringRefES0_.exit.thread11.us ], [ 0, %3 ]
  %.0.ptr15.us = getelementptr inbounds nuw i8, ptr @_ZN4llvm7AArch6410ExtensionsE, i64 %.0.idx14.us
  %.sroa.2.0..sroa_idx.us = getelementptr inbounds nuw i8, ptr %.0.ptr15.us, i64 88
  %.sroa.2.0.copyload.us = load i64, ptr %.sroa.2.0..sroa_idx.us, align 8
  %.not.i.us = icmp eq i64 %.sroa.2.0.copyload.us, 0
  br i1 %.not.i.us, label %_ZN4llvmeqENS_9StringRefES0_.exit.thread, label %_ZN4llvmeqENS_9StringRefES0_.exit.thread11.us

_ZN4llvmeqENS_9StringRefES0_.exit.thread11.us:    ; preds = %.split.us
  %.0.add.us = add nuw nsw i64 %.0.idx14.us, 112
  %.not.us = icmp eq i64 %.0.add.us, 12544
  br i1 %.not.us, label %.split17.us, label %.split.us

.split:                                           ; preds = %3, %_ZN4llvmeqENS_9StringRefES0_.exit.thread11
  %.0.idx14 = phi i64 [ %.0.add, %_ZN4llvmeqENS_9StringRefES0_.exit.thread11 ], [ 0, %3 ]
  %.0.ptr15 = getelementptr inbounds nuw i8, ptr @_ZN4llvm7AArch6410ExtensionsE, i64 %.0.idx14
  %.sroa.2.0..sroa_idx = getelementptr inbounds nuw i8, ptr %.0.ptr15, i64 88
  %.sroa.2.0.copyload = load i64, ptr %.sroa.2.0..sroa_idx, align 8
  %.not.i = icmp eq i64 %.fr19, %.sroa.2.0.copyload
  br i1 %.not.i, label %_ZN4llvmeqENS_9StringRefES0_.exit, label %_ZN4llvmeqENS_9StringRefES0_.exit.thread11

_ZN4llvmeqENS_9StringRefES0_.exit:                ; preds = %.split
  %5 = getelementptr inbounds nuw i8, ptr %.0.ptr15, i64 80
  %.sroa.0.0.copyload = load ptr, ptr %5, align 16
  %bcmp.i = tail call i32 @bcmp(ptr %1, ptr %.sroa.0.0.copyload, i64 %.fr19)
  %6 = icmp eq i32 %bcmp.i, 0
  br i1 %6, label %_ZN4llvmeqENS_9StringRefES0_.exit.thread, label %_ZN4llvmeqENS_9StringRefES0_.exit.thread11

_ZN4llvmeqENS_9StringRefES0_.exit.thread:         ; preds = %_ZN4llvmeqENS_9StringRefES0_.exit, %.split.us
  %.us-phi = phi ptr [ %.0.ptr15.us, %.split.us ], [ %.0.ptr15, %_ZN4llvmeqENS_9StringRefES0_.exit ]
  tail call void @llvm.memcpy.p0.p0.i64(ptr noundef nonnull align 8 dereferenceable(120) %0, ptr noundef nonnull align 16 dereferenceable(112) %.us-phi, i64 112, i1 false)
  br label %.split17.us

_ZN4llvmeqENS_9StringRefES0_.exit.thread11:       ; preds = %.split, %_ZN4llvmeqENS_9StringRefES0_.exit
  %.0.add = add nuw nsw i64 %.0.idx14, 112
  %.not = icmp eq i64 %.0.add, 12544
  br i1 %.not, label %.split17.us, label %.split

.split17.us:                                      ; preds = %_ZN4llvmeqENS_9StringRefES0_.exit.thread11, %_ZN4llvmeqENS_9StringRefES0_.exit.thread11.us, %_ZN4llvmeqENS_9StringRefES0_.exit.thread
  %.sink = phi i8 [ 1, %_ZN4llvmeqENS_9StringRefES0_.exit.thread ], [ 0, %_ZN4llvmeqENS_9StringRefES0_.exit.thread11.us ], [ 0, %_ZN4llvmeqENS_9StringRefES0_.exit.thread11 ]
  %7 = getelementptr inbounds nuw i8, ptr %0, i64 112
  store i8 %.sink, ptr %7, align 8
  ret void
}